; ModuleID = 'bench/gromacs/original/settimestep.cpp.ll'
source_filename = "bench/gromacs/original/settimestep.cpp.ll"
target datalayout = "e-m:e-p270:32:32-p271:32:32-p272:64:64-i64:64-i128:128-f80:128-n8:16:32:64-S128"
target triple = "x86_64-pc-linux-gnu"

$_ZN3gmx11SetTimeStepD2Ev = comdat any

$_ZN3gmx11SetTimeStepD0Ev = comdat any

$_ZNK3gmx11SetTimeStep24checkAbilityDependenciesEm = comdat any

$_ZTSN3gmx14IOutputAdapterE = comdat any

$_ZTIN3gmx14IOutputAdapterE = comdat any

@_ZTVN3gmx11SetTimeStepE = unnamed_addr constant { [6 x ptr] } { [6 x ptr] [ptr null, ptr @_ZTIN3gmx11SetTimeStepE, ptr @_ZN3gmx11SetTimeStepD2Ev, ptr @_ZN3gmx11SetTimeStepD0Ev, ptr @_ZN3gmx11SetTimeStep12processFrameEiP10t_trxframe, ptr @_ZNK3gmx11SetTimeStep24checkAbilityDependenciesEm] }, align 8
@_ZTVN10__cxxabiv120__si_class_type_infoE = external global [0 x ptr]
@_ZTSN3gmx11SetTimeStepE = constant [20 x i8] c"N3gmx11SetTimeStepE\00", align 1
@_ZTVN10__cxxabiv117__class_type_infoE = external global [0 x ptr]
@_ZTSN3gmx14IOutputAdapterE = linkonce_odr constant [23 x i8] c"N3gmx14IOutputAdapterE\00", comdat, align 1
@_ZTIN3gmx14IOutputAdapterE = linkonce_odr constant { ptr, ptr } { ptr getelementptr inbounds (ptr, ptr @_ZTVN10__cxxabiv117__class_type_infoE, i64 2), ptr @_ZTSN3gmx14IOutputAdapterE }, comdat, align 8
@_ZTIN3gmx11SetTimeStepE = constant { ptr, ptr, ptr } { ptr getelementptr inbounds (ptr, ptr @_ZTVN10__cxxabiv120__si_class_type_infoE, i64 2), ptr @_ZTSN3gmx11SetTimeStepE, ptr @_ZTIN3gmx14IOutputAdapterE }, align 8

; Function Attrs: mustprogress nounwind uwtable
define linkonce_odr void @_ZN3gmx11SetTimeStepD2Ev(ptr noundef nonnull align 8 dereferenceable(17) %0) unnamed_addr #0 comdat align 2 {
  ret void
}

; Function Attrs: mustprogress nounwind uwtable
define linkonce_odr void @_ZN3gmx11SetTimeStepD0Ev(ptr noundef nonnull align 8 dereferenceable(17) %0) unnamed_addr #0 comdat align 2 {
  tail call void @_ZdlPv(ptr noundef nonnull %0) #3
  ret void
}

; Function Attrs: mustprogress nofree norecurse nosync nounwind willreturn memory(argmem: readwrite) uwtable
define void @_ZN3gmx11SetTimeStep12processFrameEiP10t_trxframe(ptr nocapture noundef nonnull align 8 dereferenceable(17) %0, i32 %1, ptr nocapture noundef %2) unnamed_addr #1 align 2 {
  %4 = getelementptr inbounds i8, ptr %2, i64 28
  %5 = getelementptr inbounds i8, ptr %0, i64 16
  %6 = load i8, ptr %5, align 8
  %7 = trunc i8 %6 to i1
  br i1 %7, label %10, label %8

8:                                                ; preds = %3
  %9 = load float, ptr %4, align 4
  store i8 1, ptr %5, align 8
  br label %_ZN3gmx11SetTimeStep21calculateNewFrameTimeEf.exit

10:                                               ; preds = %3
  %11 = getelementptr inbounds i8, ptr %0, i64 12
  %12 = load float, ptr %11, align 4
  %13 = getelementptr inbounds i8, ptr %0, i64 8
  %14 = load float, ptr %13, align 8
  %15 = fadd float %12, %14
  br label %_ZN3gmx11SetTimeStep21calculateNewFrameTimeEf.exit

_ZN3gmx11SetTimeStep21calculateNewFrameTimeEf.exit: ; preds = %8, %10
  %.0.i = phi float [ %15, %10 ], [ %9, %8 ]
  %16 = getelementptr inbounds i8, ptr %0, i64 12
  store float %.0.i, ptr %16, align 4
  store float %.0.i, ptr %4, align 4
  %17 = getelementptr inbounds i8, ptr %2, i64 24
  store i8 1, ptr %17, align 8
  ret void
}

; Function Attrs: mustprogress nounwind uwtable
define linkonce_odr void @_ZNK3gmx11SetTimeStep24checkAbilityDependenciesEm(ptr noundef nonnull align 8 dereferenceable(17) %0, i64 noundef %1) unnamed_addr #0 comdat align 2 {
  ret void
}

; Function Attrs: mustprogress nofree norecurse nosync nounwind willreturn memory(argmem: readwrite) uwtable
define noundef float @_ZN3gmx11SetTimeStep21calculateNewFrameTimeEf(ptr nocapture noundef nonnull align 8 dereferenceable(17) %0, float noundef %1) local_unnamed_addr #1 align 2 {
  %3 = getelementptr inbounds i8, ptr %0, i64 16
  %4 = load i8, ptr %3, align 8
  %5 = trunc i8 %4 to i1
  br i1 %5, label %7, label %6

6:                                                ; preds = %2
  store i8 1, ptr %3, align 8
  br label %13

7:                                                ; preds = %2
  %8 = getelementptr inbounds i8, ptr %0, i64 12
  %9 = load float, ptr %8, align 4
  %10 = getelementptr inbounds i8, ptr %0, i64 8
  %11 = load float, ptr %10, align 8
  %12 = fadd float %9, %11
  br label %13

13:                                               ; preds = %7, %6
  %.0 = phi float [ %12, %7 ], [ %1, %6 ]
  %14 = getelementptr inbounds i8, ptr %0, i64 12
  store float %.0, ptr %14, align 4
  ret float %.0
}

; Function Attrs: nobuiltin nounwind
declare void @_ZdlPv(ptr noundef) local_unnamed_addr #2


!llvm.module.flags = !{!0, !1, !2, !3, !4}

!0 = !{i32 1, !"wchar_size", i32 4}
!1 = !{i32 7, !"openmp", i32 51}
!2 = !{i32 8, !"PIC Level", i32 2}
!3 = !{i32 7, !"uwtable", i32 2}
!4 = !{i32 7, !"frame-pointer", i32 2}
